target datalayout = "e-m:e-p270:32:32-p271:32:32-p272:64:64-i64:64-i128:128-f80:128-n8:16:32:64-S128"
target triple = "x86_64-pc-linux-gnu"

%"class.gmx::AtomsBuilder" = type { ptr, ptr, i32, i32, i32, i32 }
%struct.t_atoms = type { i32, ptr, ptr, ptr, ptr, i32, ptr, ptr, i8, i8, i8, i8, i8 }
%struct.t_resinfo = type { ptr, i32, i8, i32, i8, ptr }

; Function Attrs: mustprogress uwtable
define noundef ptr @_ZN3gmx12AtomsBuilder12symtabStringEPPc(ptr noundef nonnull align 8 dereferenceable(32) %0, ptr noundef %1) #1 align 2 {
  %3 = alloca ptr, align 8
  %4 = alloca ptr, align 8
  %5 = alloca ptr, align 8
  store ptr %0, ptr %4, align 8, !tbaa !4
  store ptr %1, ptr %5, align 8, !tbaa !35
  %6 = load ptr, ptr %4, align 8
  %7 = getelementptr inbounds nuw %"class.gmx::AtomsBuilder", ptr %6, i32 0, i32 1
  %8 = load ptr, ptr %7, align 8, !tbaa !16
  %9 = icmp ne ptr %8, null
  br i1 %9, label %10, label %16

10:                                               ; preds = %2
  %11 = getelementptr inbounds nuw %"class.gmx::AtomsBuilder", ptr %6, i32 0, i32 1
  %12 = load ptr, ptr %11, align 8, !tbaa !16
  %13 = load ptr, ptr %5, align 8, !tbaa !35
  %14 = load ptr, ptr %13, align 8, !tbaa !36
  %15 = call noundef ptr @_Z10put_symtabP8t_symtabPKc(ptr noundef %12, ptr noundef %14)
  store ptr %15, ptr %3, align 8
  br label %18

16:                                               ; preds = %2
  %17 = load ptr, ptr %5, align 8, !tbaa !35
  store ptr %17, ptr %3, align 8
  br label %18

18:                                               ; preds = %16, %10
  %19 = load ptr, ptr %3, align 8
  ret ptr %19
}

; Function Attrs: mustprogress uwtable
define void @_ZN3gmx12AtomsBuilder12startResidueERK9t_resinfo(ptr noundef nonnull align 8 dereferenceable(32) %0, ptr noundef nonnull align 8 dereferenceable(32) %1) #1 align 2 {
  %3 = alloca ptr, align 8
  %4 = alloca ptr, align 8
  %5 = alloca i32, align 4
  store ptr %0, ptr %3, align 8, !tbaa !4
  store ptr %1, ptr %4, align 8, !tbaa !51
  %6 = load ptr, ptr %3, align 8
  %7 = getelementptr inbounds nuw %"class.gmx::AtomsBuilder", ptr %6, i32 0, i32 5
  %8 = load i32, ptr %7, align 4, !tbaa !30
  %9 = icmp eq i32 %8, -1
  br i1 %9, label %10, label %15

10:                                               ; preds = %2
  %11 = load ptr, ptr %4, align 8, !tbaa !51
  %12 = getelementptr inbounds nuw %struct.t_resinfo, ptr %11, i32 0, i32 1
  %13 = load i32, ptr %12, align 8, !tbaa !32
  %14 = getelementptr inbounds nuw %"class.gmx::AtomsBuilder", ptr %6, i32 0, i32 5
  store i32 %13, ptr %14, align 4, !tbaa !30
  br label %15

15:                                               ; preds = %10, %2
  call void @llvm.lifetime.start.p0(i64 4, ptr %5) #13
  %16 = getelementptr inbounds nuw %"class.gmx::AtomsBuilder", ptr %6, i32 0, i32 0
  %17 = load ptr, ptr %16, align 8, !tbaa !13
  %18 = getelementptr inbounds nuw %struct.t_atoms, ptr %17, i32 0, i32 5
  %19 = load i32, ptr %18, align 8, !tbaa !27
  store i32 %19, ptr %5, align 4, !tbaa !38
  %20 = load ptr, ptr %4, align 8, !tbaa !51
  %21 = getelementptr inbounds nuw %"class.gmx::AtomsBuilder", ptr %6, i32 0, i32 0
  %22 = load ptr, ptr %21, align 8, !tbaa !13
  %23 = getelementptr inbounds nuw %struct.t_atoms, ptr %22, i32 0, i32 6
  %24 = load ptr, ptr %23, align 8, !tbaa !31
  %25 = load i32, ptr %5, align 4, !tbaa !38
  %26 = sext i32 %25 to i64
  %27 = getelementptr inbounds %struct.t_resinfo, ptr %24, i64 %26
  call void @llvm.memcpy.p0.p0.i64(ptr align 8 %27, ptr align 8 %20, i64 32, i1 false), !tbaa.struct !71
  %28 = getelementptr inbounds nuw %"class.gmx::AtomsBuilder", ptr %6, i32 0, i32 5
  %29 = load i32, ptr %28, align 4, !tbaa !30
  %30 = getelementptr inbounds nuw %"class.gmx::AtomsBuilder", ptr %6, i32 0, i32 0
  %31 = load ptr, ptr %30, align 8, !tbaa !13
  %32 = getelementptr inbounds nuw %struct.t_atoms, ptr %31, i32 0, i32 6
  %33 = load ptr, ptr %32, align 8, !tbaa !31
  %34 = load i32, ptr %5, align 4, !tbaa !38
  %35 = sext i32 %34 to i64
  %36 = getelementptr inbounds %struct.t_resinfo, ptr %33, i64 %35
  %37 = getelementptr inbounds nuw %struct.t_resinfo, ptr %36, i32 0, i32 1
  store i32 %29, ptr %37, align 8, !tbaa !32
  %38 = load ptr, ptr %4, align 8, !tbaa !51
  %39 = getelementptr inbounds nuw %struct.t_resinfo, ptr %38, i32 0, i32 0
  %40 = load ptr, ptr %39, align 8, !tbaa !72
  %41 = call noundef ptr @_ZN3gmx12AtomsBuilder12symtabStringEPPc(ptr noundef nonnull align 8 dereferenceable(32) %6, ptr noundef %40)
  %42 = getelementptr inbounds nuw %"class.gmx::AtomsBuilder", ptr %6, i32 0, i32 0
  %43 = load ptr, ptr %42, align 8, !tbaa !13
  %44 = getelementptr inbounds nuw %struct.t_atoms, ptr %43, i32 0, i32 6
  %45 = load ptr, ptr %44, align 8, !tbaa !31
  %46 = load i32, ptr %5, align 4, !tbaa !38
  %47 = sext i32 %46 to i64
  %48 = getelementptr inbounds %struct.t_resinfo, ptr %45, i64 %47
  %49 = getelementptr inbounds nuw %struct.t_resinfo, ptr %48, i32 0, i32 0
  store ptr %41, ptr %49, align 8, !tbaa !72
  %50 = getelementptr inbounds nuw %"class.gmx::AtomsBuilder", ptr %6, i32 0, i32 5
  %51 = load i32, ptr %50, align 4, !tbaa !30
  %52 = add nsw i32 %51, 1
  store i32 %52, ptr %50, align 4, !tbaa !30
  %53 = load i32, ptr %5, align 4, !tbaa !38
  %54 = getelementptr inbounds nuw %"class.gmx::AtomsBuilder", ptr %6, i32 0, i32 4
  store i32 %53, ptr %54, align 8, !tbaa !29
  %55 = getelementptr inbounds nuw %"class.gmx::AtomsBuilder", ptr %6, i32 0, i32 0
  %56 = load ptr, ptr %55, align 8, !tbaa !13
  %57 = getelementptr inbounds nuw %struct.t_atoms, ptr %56, i32 0, i32 5
  %58 = load i32, ptr %57, align 8, !tbaa !27
  %59 = add nsw i32 %58, 1
  store i32 %59, ptr %57, align 8, !tbaa !27
  call void @llvm.lifetime.end.p0(i64 4, ptr %5) #13
  ret void
}